target datalayout = "e-m:e-p270:32:32-p271:32:32-p272:64:64-i64:64-i128:128-f80:128-n8:16:32:64-S128"
target triple = "x86_64-pc-linux-gnu"

%struct.ForEachState = type { ptr, i32 }
%struct.PlannerInfo = type { i32, ptr, ptr, i32, ptr, ptr, ptr, ptr, i32, ptr, ptr, ptr, ptr, ptr, ptr, ptr, ptr, i32, ptr, ptr, ptr, ptr, ptr, i8, ptr, ptr, ptr, ptr, ptr, i32, ptr, ptr, ptr, ptr, ptr, ptr, ptr, i32, ptr, ptr, ptr, i32, ptr, ptr, ptr, ptr, ptr, ptr, [8 x ptr], [8 x ptr], ptr, ptr, ptr, ptr, ptr, ptr, ptr, double, double, double, i32, i8, i8, i8, i8, i8, i8, i8, i32, ptr, ptr, i32, i8, i8, i32, ptr, ptr, ptr, ptr, ptr, ptr, i8, ptr }
%struct.List = type { i32, i32, i32, ptr, [0 x %union.ListCell] }
%union.ListCell = type { ptr }
%struct.RelOptInfo = type { i32, i32, ptr, double, i8, i8, i8, ptr, ptr, ptr, ptr, ptr, ptr, ptr, ptr, ptr, ptr, i32, i32, i32, i16, i16, ptr, ptr, ptr, ptr, ptr, ptr, ptr, ptr, i32, double, double, ptr, ptr, ptr, i32, i32, i32, i32, i8, ptr, ptr, ptr, ptr, ptr, %struct.QualCost, i32, ptr, i8, i8, ptr, ptr, ptr, ptr, i32, ptr, i8, ptr, ptr, ptr, ptr, ptr, ptr }
%struct.QualCost = type { double, double }
%struct.JoinHashEntry = type { ptr, ptr }
%struct.HASHCTL = type { i64, i64, i64, i64, i64, i64, ptr, ptr, ptr, ptr, ptr, ptr }

@CurrentMemoryContext = external global ptr, align 8
@.str.5 = private unnamed_addr constant [17 x i8] c"JoinRelHashTable\00", align 1

; Function Attrs: nounwind uwtable
define internal void @build_join_rel_hash(ptr noundef %0) #0 {
  %2 = alloca ptr, align 8
  %3 = alloca ptr, align 8
  %4 = alloca %struct.HASHCTL, align 8
  %5 = alloca ptr, align 8
  %6 = alloca %struct.ForEachState, align 8
  %7 = alloca ptr, align 8
  %8 = alloca ptr, align 8
  %9 = alloca i8, align 1
  store ptr %0, ptr %2, align 8
  call void @llvm.lifetime.start.p0(i64 8, ptr %3) #6
  call void @llvm.lifetime.start.p0(i64 96, ptr %4) #6
  call void @llvm.lifetime.start.p0(i64 8, ptr %5) #6
  %10 = getelementptr inbounds nuw %struct.HASHCTL, ptr %4, i32 0, i32 4
  store i64 8, ptr %10, align 8
  %11 = getelementptr inbounds nuw %struct.HASHCTL, ptr %4, i32 0, i32 5
  store i64 16, ptr %11, align 8
  %12 = getelementptr inbounds nuw %struct.HASHCTL, ptr %4, i32 0, i32 6
  store ptr @bitmap_hash, ptr %12, align 8
  %13 = getelementptr inbounds nuw %struct.HASHCTL, ptr %4, i32 0, i32 7
  store ptr @bitmap_match, ptr %13, align 8
  %14 = load ptr, ptr @CurrentMemoryContext, align 8
  %15 = getelementptr inbounds nuw %struct.HASHCTL, ptr %4, i32 0, i32 10
  store ptr %14, ptr %15, align 8
  %16 = call ptr @hash_create(ptr noundef @.str.5, i64 noundef 256, ptr noundef %4, i32 noundef 1224)
  store ptr %16, ptr %3, align 8
  call void @llvm.lifetime.start.p0(i64 16, ptr %6) #6
  %17 = getelementptr inbounds nuw %struct.ForEachState, ptr %6, i32 0, i32 0
  %18 = load ptr, ptr %2, align 8
  %19 = getelementptr inbounds nuw %struct.PlannerInfo, ptr %18, i32 0, i32 14
  %20 = load ptr, ptr %19, align 8
  store ptr %20, ptr %17, align 8
  %21 = getelementptr inbounds nuw %struct.ForEachState, ptr %6, i32 0, i32 1
  store i32 0, ptr %21, align 8
  %22 = getelementptr i8, ptr %6, i64 12
  call void @llvm.memset.p0.i64(ptr align 4 %22, i8 0, i64 4, i1 false)
  br label %23

23:                                               ; preds = %59, %1
  %24 = getelementptr inbounds nuw %struct.ForEachState, ptr %6, i32 0, i32 0
  %25 = load ptr, ptr %24, align 8
  %26 = icmp ne ptr %25, null
  br i1 %26, label %27, label %44

27:                                               ; preds = %23
  %28 = getelementptr inbounds nuw %struct.ForEachState, ptr %6, i32 0, i32 1
  %29 = load i32, ptr %28, align 8
  %30 = getelementptr inbounds nuw %struct.ForEachState, ptr %6, i32 0, i32 0
  %31 = load ptr, ptr %30, align 8
  %32 = getelementptr inbounds nuw %struct.List, ptr %31, i32 0, i32 1
  %33 = load i32, ptr %32, align 4
  %34 = icmp slt i32 %29, %33
  br i1 %34, label %35, label %44

35:                                               ; preds = %27
  %36 = getelementptr inbounds nuw %struct.ForEachState, ptr %6, i32 0, i32 0
  %37 = load ptr, ptr %36, align 8
  %38 = getelementptr inbounds nuw %struct.List, ptr %37, i32 0, i32 3
  %39 = load ptr, ptr %38, align 8
  %40 = getelementptr inbounds nuw %struct.ForEachState, ptr %6, i32 0, i32 1
  %41 = load i32, ptr %40, align 8
  %42 = sext i32 %41 to i64
  %43 = getelementptr inbounds %union.ListCell, ptr %39, i64 %42
  store ptr %43, ptr %5, align 8
  br label %45

44:                                               ; preds = %27, %23
  store ptr null, ptr %5, align 8
  br label %45

45:                                               ; preds = %44, %35
  %46 = phi i32 [ 1, %35 ], [ 0, %44 ]
  %47 = icmp ne i32 %46, 0
  br i1 %47, label %49, label %48

48:                                               ; preds = %45
  call void @llvm.lifetime.end.p0(i64 16, ptr %6) #6
  br label %63

49:                                               ; preds = %45
  call void @llvm.lifetime.start.p0(i64 8, ptr %7) #6
  %50 = load ptr, ptr %5, align 8
  %51 = load ptr, ptr %50, align 8
  store ptr %51, ptr %7, align 8
  call void @llvm.lifetime.start.p0(i64 8, ptr %8) #6
  call void @llvm.lifetime.start.p0(i64 1, ptr %9) #6
  %52 = load ptr, ptr %3, align 8
  %53 = load ptr, ptr %7, align 8
  %54 = getelementptr inbounds nuw %struct.RelOptInfo, ptr %53, i32 0, i32 2
  %55 = call ptr @hash_search(ptr noundef %52, ptr noundef %54, i32 noundef 1, ptr noundef %9)
  store ptr %55, ptr %8, align 8
  %56 = load ptr, ptr %7, align 8
  %57 = load ptr, ptr %8, align 8
  %58 = getelementptr inbounds nuw %struct.JoinHashEntry, ptr %57, i32 0, i32 1
  store ptr %56, ptr %58, align 8
  call void @llvm.lifetime.end.p0(i64 1, ptr %9) #6
  call void @llvm.lifetime.end.p0(i64 8, ptr %8) #6
  call void @llvm.lifetime.end.p0(i64 8, ptr %7) #6
  br label %59

59:                                               ; preds = %49
  %60 = getelementptr inbounds nuw %struct.ForEachState, ptr %6, i32 0, i32 1
  %61 = load i32, ptr %60, align 8
  %62 = add i32 %61, 1
  store i32 %62, ptr %60, align 8
  br label %23, !llvm.loop !10

63:                                               ; preds = %48
  %64 = load ptr, ptr %3, align 8
  %65 = load ptr, ptr %2, align 8
  %66 = getelementptr inbounds nuw %struct.PlannerInfo, ptr %65, i32 0, i32 15
  store ptr %64, ptr %66, align 8
  call void @llvm.lifetime.end.p0(i64 8, ptr %5) #6
  call void @llvm.lifetime.end.p0(i64 96, ptr %4) #6
  call void @llvm.lifetime.end.p0(i64 8, ptr %3) #6
  ret void
}

; Function Attrs: inlinehint nounwind uwtable
define internal i32 @list_length(ptr noundef %0) #2 {
  %2 = alloca ptr, align 8
  store ptr %0, ptr %2, align 8
  %3 = load ptr, ptr %2, align 8
  %4 = icmp ne ptr %3, null
  br i1 %4, label %5, label %9

5:                                                ; preds = %1
  %6 = load ptr, ptr %2, align 8
  %7 = getelementptr inbounds nuw %struct.List, ptr %6, i32 0, i32 1
  %8 = load i32, ptr %7, align 4
  br label %10

9:                                                ; preds = %1
  br label %10

10:                                               ; preds = %9, %5
  %11 = phi i32 [ %8, %5 ], [ 0, %9 ]
  ret i32 %11
}

; Function Attrs: nounwind uwtable
define dso_local ptr @find_join_rel(ptr noundef %0, ptr noundef %1) #0 {
  %3 = alloca ptr, align 8
  %4 = alloca ptr, align 8
  %5 = alloca ptr, align 8
  %6 = alloca ptr, align 8
  %7 = alloca ptr, align 8
  %8 = alloca i32, align 4
  %9 = alloca ptr, align 8
  %10 = alloca %struct.ForEachState, align 8
  %11 = alloca ptr, align 8
  store ptr %0, ptr %4, align 8
  store ptr %1, ptr %5, align 8
  %12 = load ptr, ptr %4, align 8
  %13 = getelementptr inbounds nuw %struct.PlannerInfo, ptr %12, i32 0, i32 15
  %14 = load ptr, ptr %13, align 8
  %15 = icmp ne ptr %14, null
  br i1 %15, label %24, label %16

16:                                               ; preds = %2
  %17 = load ptr, ptr %4, align 8
  %18 = getelementptr inbounds nuw %struct.PlannerInfo, ptr %17, i32 0, i32 14
  %19 = load ptr, ptr %18, align 8
  %20 = call i32 @list_length(ptr noundef %19)
  %21 = icmp sgt i32 %20, 32
  br i1 %21, label %22, label %24

22:                                               ; preds = %16
  %23 = load ptr, ptr %4, align 8
  call void @build_join_rel_hash(ptr noundef %23)
  br label %24

24:                                               ; preds = %22, %16, %2
  %25 = load ptr, ptr %4, align 8
  %26 = getelementptr inbounds nuw %struct.PlannerInfo, ptr %25, i32 0, i32 15
  %27 = load ptr, ptr %26, align 8
  %28 = icmp ne ptr %27, null
  br i1 %28, label %29, label %45

29:                                               ; preds = %24
  call void @llvm.lifetime.start.p0(i64 8, ptr %6) #6
  %30 = load ptr, ptr %5, align 8
  store ptr %30, ptr %6, align 8
  call void @llvm.lifetime.start.p0(i64 8, ptr %7) #6
  %31 = load ptr, ptr %4, align 8
  %32 = getelementptr inbounds nuw %struct.PlannerInfo, ptr %31, i32 0, i32 15
  %33 = load ptr, ptr %32, align 8
  %34 = call ptr @hash_search(ptr noundef %33, ptr noundef %6, i32 noundef 0, ptr noundef null)
  store ptr %34, ptr %7, align 8
  %35 = load ptr, ptr %7, align 8
  %36 = icmp ne ptr %35, null
  br i1 %36, label %37, label %41

37:                                               ; preds = %29
  %38 = load ptr, ptr %7, align 8
  %39 = getelementptr inbounds nuw %struct.JoinHashEntry, ptr %38, i32 0, i32 1
  %40 = load ptr, ptr %39, align 8
  store ptr %40, ptr %3, align 8
  store i32 1, ptr %8, align 4
  br label %42

41:                                               ; preds = %29
  store i32 0, ptr %8, align 4
  br label %42

42:                                               ; preds = %41, %37
  call void @llvm.lifetime.end.p0(i64 8, ptr %7) #6
  call void @llvm.lifetime.end.p0(i64 8, ptr %6) #6
  %43 = load i32, ptr %8, align 4
  switch i32 %43, label %105 [
    i32 0, label %44
    i32 1, label %103
  ]

44:                                               ; preds = %42
  br label %102

45:                                               ; preds = %24
  call void @llvm.lifetime.start.p0(i64 8, ptr %9) #6
  call void @llvm.lifetime.start.p0(i64 16, ptr %10) #6
  %46 = getelementptr inbounds nuw %struct.ForEachState, ptr %10, i32 0, i32 0
  %47 = load ptr, ptr %4, align 8
  %48 = getelementptr inbounds nuw %struct.PlannerInfo, ptr %47, i32 0, i32 14
  %49 = load ptr, ptr %48, align 8
  store ptr %49, ptr %46, align 8
  %50 = getelementptr inbounds nuw %struct.ForEachState, ptr %10, i32 0, i32 1
  store i32 0, ptr %50, align 8
  %51 = getelementptr i8, ptr %10, i64 12
  call void @llvm.memset.p0.i64(ptr align 4 %51, i8 0, i64 4, i1 false)
  br label %52

52:                                               ; preds = %92, %45
  %53 = getelementptr inbounds nuw %struct.ForEachState, ptr %10, i32 0, i32 0
  %54 = load ptr, ptr %53, align 8
  %55 = icmp ne ptr %54, null
  br i1 %55, label %56, label %73

56:                                               ; preds = %52
  %57 = getelementptr inbounds nuw %struct.ForEachState, ptr %10, i32 0, i32 1
  %58 = load i32, ptr %57, align 8
  %59 = getelementptr inbounds nuw %struct.ForEachState, ptr %10, i32 0, i32 0
  %60 = load ptr, ptr %59, align 8
  %61 = getelementptr inbounds nuw %struct.List, ptr %60, i32 0, i32 1
  %62 = load i32, ptr %61, align 4
  %63 = icmp slt i32 %58, %62
  br i1 %63, label %64, label %73

64:                                               ; preds = %56
  %65 = getelementptr inbounds nuw %struct.ForEachState, ptr %10, i32 0, i32 0
  %66 = load ptr, ptr %65, align 8
  %67 = getelementptr inbounds nuw %struct.List, ptr %66, i32 0, i32 3
  %68 = load ptr, ptr %67, align 8
  %69 = getelementptr inbounds nuw %struct.ForEachState, ptr %10, i32 0, i32 1
  %70 = load i32, ptr %69, align 8
  %71 = sext i32 %70 to i64
  %72 = getelementptr inbounds %union.ListCell, ptr %68, i64 %71
  store ptr %72, ptr %9, align 8
  br label %74

73:                                               ; preds = %56, %52
  store ptr null, ptr %9, align 8
  br label %74

74:                                               ; preds = %73, %64
  %75 = phi i32 [ 1, %64 ], [ 0, %73 ]
  %76 = icmp ne i32 %75, 0
  br i1 %76, label %78, label %77

77:                                               ; preds = %74
  store i32 2, ptr %8, align 4
  br label %96

78:                                               ; preds = %74
  call void @llvm.lifetime.start.p0(i64 8, ptr %11) #6
  %79 = load ptr, ptr %9, align 8
  %80 = load ptr, ptr %79, align 8
  store ptr %80, ptr %11, align 8
  %81 = load ptr, ptr %11, align 8
  %82 = getelementptr inbounds nuw %struct.RelOptInfo, ptr %81, i32 0, i32 2
  %83 = load ptr, ptr %82, align 8
  %84 = load ptr, ptr %5, align 8
  %85 = call zeroext i1 @bms_equal(ptr noundef %83, ptr noundef %84)
  br i1 %85, label %86, label %88

86:                                               ; preds = %78
  %87 = load ptr, ptr %11, align 8
  store ptr %87, ptr %3, align 8
  store i32 1, ptr %8, align 4
  br label %89

88:                                               ; preds = %78
  store i32 0, ptr %8, align 4
  br label %89

89:                                               ; preds = %88, %86
  call void @llvm.lifetime.end.p0(i64 8, ptr %11) #6
  %90 = load i32, ptr %8, align 4
  switch i32 %90, label %96 [
    i32 0, label %91
  ]

91:                                               ; preds = %89
  br label %92

92:                                               ; preds = %91
  %93 = getelementptr inbounds nuw %struct.ForEachState, ptr %10, i32 0, i32 1
  %94 = load i32, ptr %93, align 8
  %95 = add i32 %94, 1
  store i32 %95, ptr %93, align 8
  br label %52, !llvm.loop !9

96:                                               ; preds = %89, %77
  call void @llvm.lifetime.end.p0(i64 16, ptr %10) #6
  %97 = load i32, ptr %8, align 4
  switch i32 %97, label %99 [
    i32 2, label %98
  ]

98:                                               ; preds = %96
  store i32 0, ptr %8, align 4
  br label %99

99:                                               ; preds = %98, %96
  call void @llvm.lifetime.end.p0(i64 8, ptr %9) #6
  %100 = load i32, ptr %8, align 4
  switch i32 %100, label %105 [
    i32 0, label %101
    i32 1, label %103
  ]

101:                                              ; preds = %99
  br label %102

102:                                              ; preds = %101, %44
  store ptr null, ptr %3, align 8
  br label %103

103:                                              ; preds = %102, %99, %42
  %104 = load ptr, ptr %3, align 8
  ret ptr %104

105:                                              ; preds = %99, %42
  unreachable
}