; Function Attrs: nounwind uwtable
define dso_local ptr @find_join_rel(ptr noundef captures(none) %0, ptr noundef %1) local_unnamed_addr #0 {
  %3 = alloca %struct.HASHCTL, align 8
  %4 = alloca i8, align 1
  %5 = alloca ptr, align 8
  %6 = getelementptr inbounds nuw i8, ptr %0, i64 120
  %7 = load ptr, ptr %6, align 8
  %.not = icmp eq ptr %7, null
  br i1 %.not, label %8, label %.thread

8:                                                ; preds = %2
  %9 = getelementptr inbounds nuw i8, ptr %0, i64 112
  %10 = load ptr, ptr %9, align 8
  %.not.i = icmp eq ptr %10, null
  br i1 %.not.i, label %.thread43, label %list_length.exit

list_length.exit:                                 ; preds = %8
  %11 = getelementptr inbounds nuw i8, ptr %10, i64 4
  %12 = load i32, ptr %11, align 4
  %13 = icmp sgt i32 %12, 32
  br i1 %13, label %14, label %thread-pre-split.thread

14:                                               ; preds = %list_length.exit
  call void @llvm.lifetime.start.p0(i64 96, ptr nonnull %3) #7
  %15 = getelementptr inbounds nuw i8, ptr %3, i64 32
  store i64 8, ptr %15, align 8
  %16 = getelementptr inbounds nuw i8, ptr %3, i64 40
  store i64 16, ptr %16, align 8
  %17 = getelementptr inbounds nuw i8, ptr %3, i64 48
  store ptr @bitmap_hash, ptr %17, align 8
  %18 = getelementptr inbounds nuw i8, ptr %3, i64 56
  store ptr @bitmap_match, ptr %18, align 8
  %19 = load ptr, ptr @CurrentMemoryContext, align 8
  %20 = getelementptr inbounds nuw i8, ptr %3, i64 80
  store ptr %19, ptr %20, align 8
  %21 = call ptr @hash_create(ptr noundef nonnull @.str.5, i64 noundef 256, ptr noundef nonnull %3, i32 noundef 1224) #7
  %22 = load ptr, ptr %9, align 8
  %23 = getelementptr inbounds nuw i8, ptr %22, i64 4
  %.not.i34 = icmp eq ptr %22, null
  br i1 %.not.i34, label %thread-pre-split, label %.lr.ph.i

.lr.ph.i:                                         ; preds = %14
  %24 = getelementptr inbounds nuw i8, ptr %22, i64 16
  %25 = load i32, ptr %23, align 4
  %26 = icmp sgt i32 %25, 0
  br i1 %26, label %.lr.ph19.i, label %thread-pre-split

.lr.ph19.i:                                       ; preds = %.lr.ph.i, %.lr.ph19.i
  %indvars.iv.i = phi i64 [ %indvars.iv.next.i, %.lr.ph19.i ], [ 0, %.lr.ph.i ]
  %27 = load ptr, ptr %24, align 8
  %28 = getelementptr inbounds nuw %union.ListCell, ptr %27, i64 %indvars.iv.i
  %29 = load ptr, ptr %28, align 8
  call void @llvm.lifetime.start.p0(i64 1, ptr nonnull %4) #7
  %30 = getelementptr inbounds nuw i8, ptr %29, i64 8
  %31 = call ptr @hash_search(ptr noundef %21, ptr noundef nonnull %30, i32 noundef 1, ptr noundef nonnull %4) #7
  %32 = getelementptr inbounds nuw i8, ptr %31, i64 8
  store ptr %29, ptr %32, align 8
  call void @llvm.lifetime.end.p0(i64 1, ptr nonnull %4) #7
  %indvars.iv.next.i = add nuw nsw i64 %indvars.iv.i, 1
  %33 = load i32, ptr %23, align 4
  %34 = sext i32 %33 to i64
  %35 = icmp slt i64 %indvars.iv.next.i, %34
  br i1 %35, label %.lr.ph19.i, label %thread-pre-split

thread-pre-split:                                 ; preds = %.lr.ph19.i, %.lr.ph.i, %14
  store ptr %21, ptr %6, align 8
  call void @llvm.lifetime.end.p0(i64 96, ptr nonnull %3) #7
  %.not28 = icmp eq ptr %21, null
  br i1 %.not28, label %thread-pre-split.thread, label %.thread

.thread:                                          ; preds = %2, %thread-pre-split
  %36 = phi ptr [ %21, %thread-pre-split ], [ %7, %2 ]
  call void @llvm.lifetime.start.p0(i64 8, ptr nonnull %5) #7
  store ptr %1, ptr %5, align 8
  %37 = call ptr @hash_search(ptr noundef nonnull %36, ptr noundef nonnull %5, i32 noundef 0, ptr noundef null) #7
  %.not31.not = icmp eq ptr %37, null
  br i1 %.not31.not, label %.thread43.sink.split, label %38

38:                                               ; preds = %.thread
  %39 = getelementptr inbounds nuw i8, ptr %37, i64 8
  %40 = load ptr, ptr %39, align 8
  br label %.thread43.sink.split

thread-pre-split.thread:                          ; preds = %list_length.exit, %thread-pre-split
  %.pr = load ptr, ptr %9, align 8
  %41 = getelementptr inbounds nuw i8, ptr %.pr, i64 4
  %.not29 = icmp eq ptr %.pr, null
  br i1 %.not29, label %.thread43, label %.lr.ph

.lr.ph:                                           ; preds = %thread-pre-split.thread
  %42 = getelementptr inbounds nuw i8, ptr %.pr, i64 16
  %43 = load i32, ptr %41, align 4
  %44 = icmp sgt i32 %43, 0
  br i1 %44, label %.lr.ph55, label %.thread43

45:                                               ; preds = %.lr.ph55
  %indvars.iv.next = add nuw nsw i64 %indvars.iv, 1
  %46 = load i32, ptr %41, align 4
  %47 = sext i32 %46 to i64
  %48 = icmp slt i64 %indvars.iv.next, %47
  br i1 %48, label %.lr.ph55, label %.thread43

.lr.ph55:                                         ; preds = %.lr.ph, %45
  %indvars.iv = phi i64 [ %indvars.iv.next, %45 ], [ 0, %.lr.ph ]
  %49 = load ptr, ptr %42, align 8
  %50 = getelementptr inbounds nuw %union.ListCell, ptr %49, i64 %indvars.iv
  %51 = load ptr, ptr %50, align 8
  %52 = getelementptr inbounds nuw i8, ptr %51, i64 8
  %53 = load ptr, ptr %52, align 8
  %54 = call zeroext i1 @bms_equal(ptr noundef %53, ptr noundef %1) #7
  br i1 %54, label %.thread43, label %45

.thread43.sink.split:                             ; preds = %.thread, %38
  %.1.ph = phi ptr [ %40, %38 ], [ null, %.thread ]
  call void @llvm.lifetime.end.p0(i64 8, ptr nonnull %5) #7
  br label %.thread43

.thread43:                                        ; preds = %45, %.lr.ph55, %.thread43.sink.split, %8, %thread-pre-split.thread, %.lr.ph
  %.1 = phi ptr [ null, %thread-pre-split.thread ], [ null, %.lr.ph ], [ null, %8 ], [ %.1.ph, %.thread43.sink.split ], [ null, %45 ], [ %51, %.lr.ph55 ]
  ret ptr %.1
}